target datalayout = "e-m:e-p270:32:32-p271:32:32-p272:64:64-i64:64-i128:128-f80:128-n8:16:32:64-S128"
target triple = "x86_64-pc-linux-gnu"

@.str = private unnamed_addr constant [9 x i8] c"temp.dot\00", align 1
@.str.1 = private unnamed_addr constant [2 x i8] c"w\00", align 1
@stdout = external global ptr, align 8
@.str.2 = private unnamed_addr constant [41 x i8] c"Cannot open the intermediate file \22%s\22.\0A\00", align 1

; Function Attrs: nounwind uwtable
define void @Abc_NodeShowBddOne(ptr noundef %0, ptr noundef %1) #0 {
  %3 = alloca ptr, align 8
  %4 = alloca ptr, align 8
  %5 = alloca ptr, align 8
  %6 = alloca ptr, align 8
  %7 = alloca i32, align 4
  store ptr %0, ptr %3, align 8, !tbaa !3
  store ptr %1, ptr %4, align 8, !tbaa !8
  call void @llvm.lifetime.start.p0(i64 8, ptr %5) #8
  store ptr @.str, ptr %5, align 8, !tbaa !10
  call void @llvm.lifetime.start.p0(i64 8, ptr %6) #8
  %8 = load ptr, ptr %5, align 8, !tbaa !10
  %9 = call noalias ptr @fopen(ptr noundef %8, ptr noundef @.str.1)
  store ptr %9, ptr %6, align 8, !tbaa !12
  %10 = icmp eq ptr %9, null
  br i1 %10, label %11, label %15

11:                                               ; preds = %2
  %12 = load ptr, ptr @stdout, align 8, !tbaa !12
  %13 = load ptr, ptr %5, align 8, !tbaa !10
  %14 = call i32 (ptr, ptr, ...) @fprintf(ptr noundef %12, ptr noundef @.str.2, ptr noundef %13) #8
  store i32 1, ptr %7, align 4
  br label %22

15:                                               ; preds = %2
  %16 = load ptr, ptr %3, align 8, !tbaa !3
  %17 = load ptr, ptr %6, align 8, !tbaa !12
  %18 = call i32 @Cudd_DumpDot(ptr noundef %16, i32 noundef 1, ptr noundef %4, ptr noundef null, ptr noundef null, ptr noundef %17)
  %19 = load ptr, ptr %6, align 8, !tbaa !12
  %20 = call i32 @fclose(ptr noundef %19)
  %21 = load ptr, ptr %5, align 8, !tbaa !10
  call void @Abc_ShowFile(ptr noundef %21, i32 noundef 0)
  store i32 0, ptr %7, align 4
  br label %22

22:                                               ; preds = %15, %11
  call void @llvm.lifetime.end.p0(i64 8, ptr %6) #8
  call void @llvm.lifetime.end.p0(i64 8, ptr %5) #8
  %23 = load i32, ptr %7, align 4
  switch i32 %23, label %25 [
    i32 0, label %24
    i32 1, label %24
  ]

24:                                               ; preds = %22, %22
  ret void

25:                                               ; preds = %22
  unreachable
}