; Function Attrs: nounwind uwtable
define void @Abc_NodeShowBddOne(ptr noundef %0, ptr noundef %1) local_unnamed_addr #0 {
  %3 = alloca ptr, align 8
  store ptr %1, ptr %3, align 8, !tbaa !3
  %4 = tail call noalias ptr @fopen(ptr noundef nonnull @.str, ptr noundef nonnull @.str.1)
  %5 = icmp eq ptr %4, null
  br i1 %5, label %6, label %9

6:                                                ; preds = %2
  %7 = load ptr, ptr @stdout, align 8, !tbaa !8
  %8 = tail call i32 (ptr, ptr, ...) @fprintf(ptr noundef %7, ptr noundef nonnull @.str.2, ptr noundef nonnull @.str) #10
  br label %12

9:                                                ; preds = %2
  %10 = call i32 @Cudd_DumpDot(ptr noundef %0, i32 noundef 1, ptr noundef nonnull %3, ptr noundef null, ptr noundef null, ptr noundef nonnull %4) #10
  %11 = call i32 @fclose(ptr noundef nonnull %4)
  call void @Abc_ShowFile(ptr noundef nonnull @.str, i32 noundef 0)
  br label %12

12:                                               ; preds = %9, %6
  ret void
}